target datalayout = "e-m:e-p270:32:32-p271:32:32-p272:64:64-i64:64-i128:128-f80:128-n8:16:32:64-S128"
target triple = "x86_64-pc-linux-gnu"

%struct.Map_NodeStruct_t_ = type { ptr, ptr, i32, i32, i32, i32, [3 x i32], [3 x float], float, ptr, ptr, ptr, ptr, [2 x %struct.Map_TimeStruct_t_], [2 x %struct.Map_TimeStruct_t_], [2 x ptr], ptr, ptr, ptr }
%struct.Map_TimeStruct_t_ = type { float, float, float }
%struct.Map_ManStruct_t_ = type { ptr, i32, ptr, i32, ptr, i32, i32, ptr, ptr, ptr, ptr, ptr, ptr, ptr, ptr, i32, i32, i32, i32, float, float, float, float, i32, i32, float, i32, i32, i32, i32, ptr, [6 x [2 x i32]], [10 x [32 x i32]], [32 x i32], [32 x i32], ptr, ptr, ptr, ptr, ptr, ptr, i32, i32, i32, i32, i32, i32, i64, i64, i64, i64, i64, i64, i64, i64, i64, i64, i64 }
%struct.Map_NodeVecStruct_t_ = type { ptr, i32, i32 }

@.str.11 = private unnamed_addr constant [42 x i8] c"Max arrival times with fanouts = %10.2f.\0A\00", align 1

; Function Attrs: nounwind uwtable
define float @Map_MappingComputeDelayWithFanouts(ptr noundef %0) #0 {
  %2 = alloca ptr, align 8
  %3 = alloca ptr, align 8
  %4 = alloca float, align 4
  %5 = alloca i32, align 4
  store ptr %0, ptr %2, align 8, !tbaa !20
  call void @llvm.lifetime.start.p0(i64 8, ptr %3) #4
  call void @llvm.lifetime.start.p0(i64 4, ptr %4) #4
  call void @llvm.lifetime.start.p0(i64 4, ptr %5) #4
  store i32 0, ptr %5, align 4, !tbaa !10
  br label %6

6:                                                ; preds = %61, %1
  %7 = load i32, ptr %5, align 4, !tbaa !10
  %8 = load ptr, ptr %2, align 8, !tbaa !20
  %9 = getelementptr inbounds nuw %struct.Map_ManStruct_t_, ptr %8, i32 0, i32 8
  %10 = load ptr, ptr %9, align 8, !tbaa !92
  %11 = getelementptr inbounds nuw %struct.Map_NodeVecStruct_t_, ptr %10, i32 0, i32 1
  %12 = load i32, ptr %11, align 8, !tbaa !35
  %13 = icmp slt i32 %7, %12
  br i1 %13, label %14, label %64

14:                                               ; preds = %6
  %15 = load ptr, ptr %2, align 8, !tbaa !20
  %16 = getelementptr inbounds nuw %struct.Map_ManStruct_t_, ptr %15, i32 0, i32 8
  %17 = load ptr, ptr %16, align 8, !tbaa !92
  %18 = getelementptr inbounds nuw %struct.Map_NodeVecStruct_t_, ptr %17, i32 0, i32 0
  %19 = load ptr, ptr %18, align 8, !tbaa !37
  %20 = load i32, ptr %5, align 4, !tbaa !10
  %21 = sext i32 %20 to i64
  %22 = getelementptr inbounds ptr, ptr %19, i64 %21
  %23 = load ptr, ptr %22, align 8, !tbaa !3
  store ptr %23, ptr %3, align 8, !tbaa !3
  %24 = load ptr, ptr %3, align 8, !tbaa !3
  %25 = call i32 @Map_NodeIsAnd(ptr noundef %24)
  %26 = icmp ne i32 %25, 0
  br i1 %26, label %28, label %27

27:                                               ; preds = %14
  br label %61

28:                                               ; preds = %14
  %29 = load ptr, ptr %3, align 8, !tbaa !3
  %30 = getelementptr inbounds nuw %struct.Map_NodeStruct_t_, ptr %29, i32 0, i32 12
  %31 = load ptr, ptr %30, align 8, !tbaa !63
  %32 = icmp ne ptr %31, null
  br i1 %32, label %33, label %34

33:                                               ; preds = %28
  br label %61

34:                                               ; preds = %28
  %35 = load ptr, ptr %3, align 8, !tbaa !3
  %36 = getelementptr inbounds nuw %struct.Map_NodeStruct_t_, ptr %35, i32 0, i32 6
  %37 = getelementptr inbounds [3 x i32], ptr %36, i64 0, i64 0
  %38 = load i32, ptr %37, align 8, !tbaa !10
  %39 = icmp sgt i32 %38, 0
  br i1 %39, label %40, label %47

40:                                               ; preds = %34
  %41 = load ptr, ptr %3, align 8, !tbaa !3
  %42 = load ptr, ptr %3, align 8, !tbaa !3
  %43 = getelementptr inbounds nuw %struct.Map_NodeStruct_t_, ptr %42, i32 0, i32 15
  %44 = getelementptr inbounds [2 x ptr], ptr %43, i64 0, i64 0
  %45 = load ptr, ptr %44, align 8, !tbaa !66
  %46 = call float @Map_TimeCutComputeArrival(ptr noundef %41, ptr noundef %45, i32 noundef 0, float noundef 0x47B9999980000000)
  br label %47

47:                                               ; preds = %40, %34
  %48 = load ptr, ptr %3, align 8, !tbaa !3
  %49 = getelementptr inbounds nuw %struct.Map_NodeStruct_t_, ptr %48, i32 0, i32 6
  %50 = getelementptr inbounds [3 x i32], ptr %49, i64 0, i64 1
  %51 = load i32, ptr %50, align 4, !tbaa !10
  %52 = icmp sgt i32 %51, 0
  br i1 %52, label %53, label %60

53:                                               ; preds = %47
  %54 = load ptr, ptr %3, align 8, !tbaa !3
  %55 = load ptr, ptr %3, align 8, !tbaa !3
  %56 = getelementptr inbounds nuw %struct.Map_NodeStruct_t_, ptr %55, i32 0, i32 15
  %57 = getelementptr inbounds [2 x ptr], ptr %56, i64 0, i64 1
  %58 = load ptr, ptr %57, align 8, !tbaa !66
  %59 = call float @Map_TimeCutComputeArrival(ptr noundef %54, ptr noundef %58, i32 noundef 1, float noundef 0x47B9999980000000)
  br label %60

60:                                               ; preds = %53, %47
  br label %61

61:                                               ; preds = %60, %33, %27
  %62 = load i32, ptr %5, align 4, !tbaa !10
  %63 = add nsw i32 %62, 1
  store i32 %63, ptr %5, align 4, !tbaa !10
  br label %6, !llvm.loop !96

64:                                               ; preds = %6
  %65 = load ptr, ptr %2, align 8, !tbaa !20
  %66 = call float @Map_TimeComputeArrivalMax(ptr noundef %65)
  store float %66, ptr %4, align 4, !tbaa !70
  %67 = load float, ptr %4, align 4, !tbaa !70
  %68 = fpext float %67 to double
  %69 = call i32 (ptr, ...) @printf(ptr noundef @.str.11, double noundef %68)
  %70 = load float, ptr %4, align 4, !tbaa !70
  call void @llvm.lifetime.end.p0(i64 4, ptr %5) #4
  call void @llvm.lifetime.end.p0(i64 4, ptr %4) #4
  call void @llvm.lifetime.end.p0(i64 8, ptr %3) #4
  ret float %70
}