; Function Attrs: nounwind uwtable
define float @Map_MappingComputeDelayWithFanouts(ptr noundef %0) local_unnamed_addr #0 {
  %2 = getelementptr inbounds nuw i8, ptr %0, i64 56
  %3 = load ptr, ptr %2, align 8, !tbaa !85
  %4 = getelementptr inbounds nuw i8, ptr %3, i64 8
  %5 = load i32, ptr %4, align 8, !tbaa !28
  %6 = icmp sgt i32 %5, 0
  br i1 %6, label %.lr.ph, label %._crit_edge

.lr.ph:                                           ; preds = %1, %31
  %indvars.iv = phi i64 [ %indvars.iv.next, %31 ], [ 0, %1 ]
  %7 = phi ptr [ %32, %31 ], [ %3, %1 ]
  %8 = load ptr, ptr %7, align 8, !tbaa !34
  %9 = getelementptr inbounds nuw ptr, ptr %8, i64 %indvars.iv
  %10 = load ptr, ptr %9, align 8, !tbaa !31
  %11 = tail call i32 @Map_NodeIsAnd(ptr noundef %10) #16
  %.not = icmp eq i32 %11, 0
  br i1 %.not, label %31, label %12

12:                                               ; preds = %.lr.ph
  %13 = getelementptr inbounds nuw i8, ptr %10, i64 88
  %14 = load ptr, ptr %13, align 8, !tbaa !60
  %.not15 = icmp eq ptr %14, null
  br i1 %.not15, label %15, label %31

15:                                               ; preds = %12
  %16 = getelementptr inbounds nuw i8, ptr %10, i64 32
  %17 = load i32, ptr %16, align 8, !tbaa !39
  %18 = icmp sgt i32 %17, 0
  br i1 %18, label %19, label %23

19:                                               ; preds = %15
  %20 = getelementptr inbounds nuw i8, ptr %10, i64 144
  %21 = load ptr, ptr %20, align 8, !tbaa !66
  %22 = tail call float @Map_TimeCutComputeArrival(ptr noundef nonnull %10, ptr noundef %21, i32 noundef 0, float noundef 0x47B9999980000000) #16
  br label %23

23:                                               ; preds = %19, %15
  %24 = getelementptr inbounds nuw i8, ptr %10, i64 36
  %25 = load i32, ptr %24, align 4, !tbaa !39
  %26 = icmp sgt i32 %25, 0
  br i1 %26, label %27, label %31

27:                                               ; preds = %23
  %28 = getelementptr inbounds nuw i8, ptr %10, i64 152
  %29 = load ptr, ptr %28, align 8, !tbaa !66
  %30 = tail call float @Map_TimeCutComputeArrival(ptr noundef nonnull %10, ptr noundef %29, i32 noundef 1, float noundef 0x47B9999980000000) #16
  br label %31

31:                                               ; preds = %23, %27, %12, %.lr.ph
  %indvars.iv.next = add nuw nsw i64 %indvars.iv, 1
  %32 = load ptr, ptr %2, align 8, !tbaa !85
  %33 = getelementptr inbounds nuw i8, ptr %32, i64 8
  %34 = load i32, ptr %33, align 8, !tbaa !28
  %35 = sext i32 %34 to i64
  %36 = icmp slt i64 %indvars.iv.next, %35
  br i1 %36, label %.lr.ph, label %._crit_edge, !llvm.loop !87

._crit_edge:                                      ; preds = %31, %1
  %37 = tail call float @Map_TimeComputeArrivalMax(ptr noundef nonnull %0) #16
  %38 = fpext float %37 to double
  %39 = tail call i32 (ptr, ...) @printf(ptr noundef nonnull dereferenceable(1) @.str.11, double noundef %38)
  ret float %37
}